target datalayout = "e-m:e-p270:32:32-p271:32:32-p272:64:64-i64:64-i128:128-f80:128-n8:16:32:64-S128"
target triple = "x86_64-pc-linux-gnu"

%struct.Argon2_instance_t = type { ptr, ptr, i32, i32, i32, i32, i32, i32, i32, i32, i32 }
%struct.Argon2_Context = type { ptr, i32, ptr, i32, ptr, i32, ptr, i32, ptr, i32, i32, i32, i32, i32, i32 }

; Function Attrs: nounwind ssp uwtable
define hidden i32 @_sodium_argon2_ctx(ptr noundef %0, i32 noundef %1) #0 {
  %3 = alloca i32, align 4
  %4 = alloca ptr, align 8
  %5 = alloca i32, align 4
  %6 = alloca i32, align 4
  %7 = alloca i32, align 4
  %8 = alloca i32, align 4
  %9 = alloca i32, align 4
  %10 = alloca %struct.Argon2_instance_t, align 8
  %11 = alloca i32, align 4
  store ptr %0, ptr %4, align 8
  store i32 %1, ptr %5, align 4
  call void @llvm.lifetime.start.p0(i64 4, ptr %6) #8
  %12 = load ptr, ptr %4, align 8
  %13 = call i32 @_sodium_argon2_validate_inputs(ptr noundef %12)
  store i32 %13, ptr %6, align 4
  call void @llvm.lifetime.start.p0(i64 4, ptr %7) #8
  call void @llvm.lifetime.start.p0(i64 4, ptr %8) #8
  call void @llvm.lifetime.start.p0(i64 4, ptr %9) #8
  call void @llvm.lifetime.start.p0(i64 56, ptr %10) #8
  %14 = load i32, ptr %6, align 4
  %15 = icmp ne i32 0, %14
  br i1 %15, label %16, label %18

16:                                               ; preds = %2
  %17 = load i32, ptr %6, align 4
  store i32 %17, ptr %3, align 4
  store i32 1, ptr %11, align 4
  br label %95

18:                                               ; preds = %2
  %19 = load i32, ptr %5, align 4
  %20 = icmp ne i32 %19, 2
  br i1 %20, label %21, label %25

21:                                               ; preds = %18
  %22 = load i32, ptr %5, align 4
  %23 = icmp ne i32 %22, 1
  br i1 %23, label %24, label %25

24:                                               ; preds = %21
  store i32 -26, ptr %3, align 4
  store i32 1, ptr %11, align 4
  br label %95

25:                                               ; preds = %21, %18
  %26 = load ptr, ptr %4, align 8
  %27 = getelementptr inbounds nuw %struct.Argon2_Context, ptr %26, i32 0, i32 11
  %28 = load i32, ptr %27, align 8
  store i32 %28, ptr %7, align 4
  %29 = load i32, ptr %7, align 4
  %30 = load ptr, ptr %4, align 8
  %31 = getelementptr inbounds nuw %struct.Argon2_Context, ptr %30, i32 0, i32 12
  %32 = load i32, ptr %31, align 4
  %33 = mul i32 8, %32
  %34 = icmp ult i32 %29, %33
  br i1 %34, label %35, label %40

35:                                               ; preds = %25
  %36 = load ptr, ptr %4, align 8
  %37 = getelementptr inbounds nuw %struct.Argon2_Context, ptr %36, i32 0, i32 12
  %38 = load i32, ptr %37, align 4
  %39 = mul i32 8, %38
  store i32 %39, ptr %7, align 4
  br label %40

40:                                               ; preds = %35, %25
  %41 = load i32, ptr %7, align 4
  %42 = load ptr, ptr %4, align 8
  %43 = getelementptr inbounds nuw %struct.Argon2_Context, ptr %42, i32 0, i32 12
  %44 = load i32, ptr %43, align 4
  %45 = mul i32 %44, 4
  %46 = udiv i32 %41, %45
  store i32 %46, ptr %8, align 4
  %47 = load i32, ptr %8, align 4
  %48 = load ptr, ptr %4, align 8
  %49 = getelementptr inbounds nuw %struct.Argon2_Context, ptr %48, i32 0, i32 12
  %50 = load i32, ptr %49, align 4
  %51 = mul i32 %50, 4
  %52 = mul i32 %47, %51
  store i32 %52, ptr %7, align 4
  %53 = getelementptr inbounds nuw %struct.Argon2_instance_t, ptr %10, i32 0, i32 0
  store ptr null, ptr %53, align 8
  %54 = load ptr, ptr %4, align 8
  %55 = getelementptr inbounds nuw %struct.Argon2_Context, ptr %54, i32 0, i32 10
  %56 = load i32, ptr %55, align 4
  %57 = getelementptr inbounds nuw %struct.Argon2_instance_t, ptr %10, i32 0, i32 2
  store i32 %56, ptr %57, align 8
  %58 = getelementptr inbounds nuw %struct.Argon2_instance_t, ptr %10, i32 0, i32 3
  store i32 -1, ptr %58, align 4
  %59 = load i32, ptr %7, align 4
  %60 = getelementptr inbounds nuw %struct.Argon2_instance_t, ptr %10, i32 0, i32 4
  store i32 %59, ptr %60, align 8
  %61 = load i32, ptr %8, align 4
  %62 = getelementptr inbounds nuw %struct.Argon2_instance_t, ptr %10, i32 0, i32 5
  store i32 %61, ptr %62, align 4
  %63 = load i32, ptr %8, align 4
  %64 = mul i32 %63, 4
  %65 = getelementptr inbounds nuw %struct.Argon2_instance_t, ptr %10, i32 0, i32 6
  store i32 %64, ptr %65, align 8
  %66 = load ptr, ptr %4, align 8
  %67 = getelementptr inbounds nuw %struct.Argon2_Context, ptr %66, i32 0, i32 12
  %68 = load i32, ptr %67, align 4
  %69 = getelementptr inbounds nuw %struct.Argon2_instance_t, ptr %10, i32 0, i32 7
  store i32 %68, ptr %69, align 4
  %70 = load ptr, ptr %4, align 8
  %71 = getelementptr inbounds nuw %struct.Argon2_Context, ptr %70, i32 0, i32 13
  %72 = load i32, ptr %71, align 8
  %73 = getelementptr inbounds nuw %struct.Argon2_instance_t, ptr %10, i32 0, i32 8
  store i32 %72, ptr %73, align 8
  %74 = load i32, ptr %5, align 4
  %75 = getelementptr inbounds nuw %struct.Argon2_instance_t, ptr %10, i32 0, i32 9
  store i32 %74, ptr %75, align 4
  %76 = load ptr, ptr %4, align 8
  %77 = call i32 @_sodium_argon2_initialize(ptr noundef %10, ptr noundef %76)
  store i32 %77, ptr %6, align 4
  %78 = load i32, ptr %6, align 4
  %79 = icmp ne i32 0, %78
  br i1 %79, label %80, label %82

80:                                               ; preds = %40
  %81 = load i32, ptr %6, align 4
  store i32 %81, ptr %3, align 4
  store i32 1, ptr %11, align 4
  br label %95

82:                                               ; preds = %40
  store i32 0, ptr %9, align 4
  br label %83

83:                                               ; preds = %90, %82
  %84 = load i32, ptr %9, align 4
  %85 = getelementptr inbounds nuw %struct.Argon2_instance_t, ptr %10, i32 0, i32 2
  %86 = load i32, ptr %85, align 8
  %87 = icmp ult i32 %84, %86
  br i1 %87, label %88, label %93

88:                                               ; preds = %83
  %89 = load i32, ptr %9, align 4
  call void @_sodium_argon2_fill_memory_blocks(ptr noundef %10, i32 noundef %89)
  br label %90

90:                                               ; preds = %88
  %91 = load i32, ptr %9, align 4
  %92 = add i32 %91, 1
  store i32 %92, ptr %9, align 4
  br label %83, !llvm.loop !4

93:                                               ; preds = %83
  %94 = load ptr, ptr %4, align 8
  call void @_sodium_argon2_finalize(ptr noundef %94, ptr noundef %10)
  store i32 0, ptr %3, align 4
  store i32 1, ptr %11, align 4
  br label %95

95:                                               ; preds = %93, %80, %24, %16
  call void @llvm.lifetime.end.p0(i64 56, ptr %10) #8
  call void @llvm.lifetime.end.p0(i64 4, ptr %9) #8
  call void @llvm.lifetime.end.p0(i64 4, ptr %8) #8
  call void @llvm.lifetime.end.p0(i64 4, ptr %7) #8
  call void @llvm.lifetime.end.p0(i64 4, ptr %6) #8
  %96 = load i32, ptr %3, align 4
  ret i32 %96
}