; Function Attrs: nounwind ssp uwtable
define hidden i32 @_sodium_argon2_ctx(ptr noundef %0, i32 noundef %1) local_unnamed_addr #0 {
  %3 = alloca %struct.Argon2_instance_t, align 8
  %4 = tail call i32 @_sodium_argon2_validate_inputs(ptr noundef %0) #9
  call void @llvm.lifetime.start.p0(i64 56, ptr nonnull %3) #9
  %.not = icmp eq i32 %4, 0
  br i1 %.not, label %5, label %34

5:                                                ; preds = %2
  %6 = add i32 %1, -3
  %or.cond = icmp ult i32 %6, -2
  br i1 %or.cond, label %34, label %7

7:                                                ; preds = %5
  %8 = getelementptr inbounds nuw i8, ptr %0, i64 80
  %9 = load i32, ptr %8, align 8
  %10 = getelementptr inbounds nuw i8, ptr %0, i64 84
  %11 = load i32, ptr %10, align 4
  %12 = shl i32 %11, 3
  %spec.select = tail call i32 @llvm.umax.i32(i32 %9, i32 %12)
  %13 = shl i32 %11, 2
  %14 = udiv i32 %spec.select, %13
  %15 = mul i32 %14, %13
  store ptr null, ptr %3, align 8
  %16 = getelementptr inbounds nuw i8, ptr %0, i64 76
  %17 = load i32, ptr %16, align 4
  %18 = getelementptr inbounds nuw i8, ptr %3, i64 16
  store i32 %17, ptr %18, align 8
  %19 = getelementptr inbounds nuw i8, ptr %3, i64 20
  store i32 -1, ptr %19, align 4
  %20 = getelementptr inbounds nuw i8, ptr %3, i64 24
  store i32 %15, ptr %20, align 8
  %21 = getelementptr inbounds nuw i8, ptr %3, i64 28
  store i32 %14, ptr %21, align 4
  %22 = shl i32 %14, 2
  %23 = getelementptr inbounds nuw i8, ptr %3, i64 32
  store i32 %22, ptr %23, align 8
  %24 = getelementptr inbounds nuw i8, ptr %3, i64 36
  store i32 %11, ptr %24, align 4
  %25 = getelementptr inbounds nuw i8, ptr %0, i64 88
  %26 = load i32, ptr %25, align 8
  %27 = getelementptr inbounds nuw i8, ptr %3, i64 40
  store i32 %26, ptr %27, align 8
  %28 = getelementptr inbounds nuw i8, ptr %3, i64 44
  store i32 %1, ptr %28, align 4
  %29 = call i32 @_sodium_argon2_initialize(ptr noundef nonnull %3, ptr noundef %0) #9
  %.not34 = icmp eq i32 %29, 0
  br i1 %.not34, label %.preheader, label %34

.preheader:                                       ; preds = %7
  %30 = load i32, ptr %18, align 8
  %.not36 = icmp eq i32 %30, 0
  br i1 %.not36, label %._crit_edge, label %.lr.ph

.lr.ph:                                           ; preds = %.preheader, %.lr.ph
  %.035 = phi i32 [ %31, %.lr.ph ], [ 0, %.preheader ]
  call void @_sodium_argon2_fill_memory_blocks(ptr noundef nonnull %3, i32 noundef %.035) #9
  %31 = add nuw i32 %.035, 1
  %32 = load i32, ptr %18, align 8
  %33 = icmp ult i32 %31, %32
  br i1 %33, label %.lr.ph, label %._crit_edge, !llvm.loop !4

._crit_edge:                                      ; preds = %.lr.ph, %.preheader
  call void @_sodium_argon2_finalize(ptr noundef %0, ptr noundef nonnull %3) #9
  br label %34

34:                                               ; preds = %7, %5, %2, %._crit_edge
  %.028 = phi i32 [ 0, %._crit_edge ], [ %4, %2 ], [ -26, %5 ], [ %29, %7 ]
  call void @llvm.lifetime.end.p0(i64 56, ptr nonnull %3) #9
  ret i32 %.028
}